target datalayout = "e-m:e-p270:32:32-p271:32:32-p272:64:64-i64:64-i128:128-f80:128-n8:16:32:64-S128"
target triple = "x86_64-unknown-linux-gnu"

%struct.b2Vec2 = type { float, float }
%struct.b2JointUserData = type { i64 }
%struct.b2MotorJointDef = type { %struct.b2JointDef.base, %struct.b2Vec2, float, float, float, float, [4 x i8] }
%struct.b2JointDef.base = type <{ i32, [4 x i8], %struct.b2JointUserData, ptr, ptr, i8 }>
%class.b2MotorJoint = type <{ %class.b2Joint, %struct.b2Vec2, float, %struct.b2Vec2, float, float, float, float, i32, i32, %struct.b2Vec2, %struct.b2Vec2, %struct.b2Vec2, %struct.b2Vec2, %struct.b2Vec2, float, float, float, float, float, %struct.b2Mat22, float, [4 x i8] }>
%class.b2Joint = type { ptr, i32, ptr, ptr, %struct.b2JointEdge, %struct.b2JointEdge, ptr, ptr, i32, i8, i8, %struct.b2JointUserData }
%struct.b2JointEdge = type { ptr, ptr, ptr, ptr }
%struct.b2Mat22 = type { %struct.b2Vec2, %struct.b2Vec2 }

; Function Attrs: mustprogress nounwind uwtable
define linkonce_odr hidden void @_ZN7b2JointD2Ev(ptr noundef nonnull align 8 dereferenceable(128) %this) unnamed_addr #1 comdat align 2 {
entry:
  %this.addr = alloca ptr, align 8
  store ptr %this, ptr %this.addr, align 8
  ret void
}

; Function Attrs: mustprogress nounwind uwtable
define linkonce_odr hidden void @_ZN6b2Vec27SetZeroEv(ptr noundef nonnull align 4 dereferenceable(8) %this) #1 comdat align 2 {
entry:
  %this.addr = alloca ptr, align 8
  store ptr %this, ptr %this.addr, align 8
  %this1 = load ptr, ptr %this.addr, align 8
  %x = getelementptr inbounds %struct.b2Vec2, ptr %this1, i32 0, i32 0
  store float 0.000000e+00, ptr %x, align 4
  %y = getelementptr inbounds %struct.b2Vec2, ptr %this1, i32 0, i32 1
  store float 0.000000e+00, ptr %y, align 4
  ret void
}

; Function Attrs: mustprogress uwtable
define void @_ZN12b2MotorJointC2EPK15b2MotorJointDef(ptr noundef nonnull align 8 dereferenceable(252) %this, ptr noundef %def) unnamed_addr #3 align 2 personality ptr @__gxx_personality_v0 {
entry:
  %this.addr = alloca ptr, align 8
  %def.addr = alloca ptr, align 8
  %exn.slot = alloca ptr, align 8
  %ehselector.slot = alloca i32, align 4
  store ptr %this, ptr %this.addr, align 8
  store ptr %def, ptr %def.addr, align 8
  %this1 = load ptr, ptr %this.addr, align 8
  %0 = load ptr, ptr %def.addr, align 8
  call void @_ZN7b2JointC2EPK10b2JointDef(ptr noundef nonnull align 8 dereferenceable(128) %this1, ptr noundef %0)
  store ptr getelementptr inbounds ({ [14 x ptr] }, ptr @_ZTV12b2MotorJoint, i32 0, i32 0, i32 2), ptr %this1, align 8
  %1 = load ptr, ptr %def.addr, align 8
  %linearOffset = getelementptr inbounds %struct.b2MotorJointDef, ptr %1, i32 0, i32 1
  %m_linearOffset2 = getelementptr inbounds %class.b2MotorJoint, ptr %this1, i32 0, i32 1
  call void @llvm.memcpy.p0.p0.i64(ptr align 8 %m_linearOffset2, ptr align 4 %linearOffset, i64 8, i1 false)
  %2 = load ptr, ptr %def.addr, align 8
  %angularOffset = getelementptr inbounds %struct.b2MotorJointDef, ptr %2, i32 0, i32 2
  %3 = load float, ptr %angularOffset, align 4
  %m_angularOffset = getelementptr inbounds %class.b2MotorJoint, ptr %this1, i32 0, i32 2
  store float %3, ptr %m_angularOffset, align 8
  %m_linearImpulse3 = getelementptr inbounds %class.b2MotorJoint, ptr %this1, i32 0, i32 3
  invoke void @_ZN6b2Vec27SetZeroEv(ptr noundef nonnull align 4 dereferenceable(8) %m_linearImpulse3)
          to label %invoke.cont unwind label %lpad

invoke.cont:                                      ; preds = %entry
  %m_angularImpulse = getelementptr inbounds %class.b2MotorJoint, ptr %this1, i32 0, i32 4
  store float 0.000000e+00, ptr %m_angularImpulse, align 4
  %4 = load ptr, ptr %def.addr, align 8
  %maxForce = getelementptr inbounds %struct.b2MotorJointDef, ptr %4, i32 0, i32 3
  %5 = load float, ptr %maxForce, align 8
  %m_maxForce = getelementptr inbounds %class.b2MotorJoint, ptr %this1, i32 0, i32 5
  store float %5, ptr %m_maxForce, align 8
  %6 = load ptr, ptr %def.addr, align 8
  %maxTorque = getelementptr inbounds %struct.b2MotorJointDef, ptr %6, i32 0, i32 4
  %7 = load float, ptr %maxTorque, align 4
  %m_maxTorque = getelementptr inbounds %class.b2MotorJoint, ptr %this1, i32 0, i32 6
  store float %7, ptr %m_maxTorque, align 4
  %8 = load ptr, ptr %def.addr, align 8
  %correctionFactor = getelementptr inbounds %struct.b2MotorJointDef, ptr %8, i32 0, i32 5
  %9 = load float, ptr %correctionFactor, align 8
  %m_correctionFactor = getelementptr inbounds %class.b2MotorJoint, ptr %this1, i32 0, i32 7
  store float %9, ptr %m_correctionFactor, align 8
  ret void

lpad:                                             ; preds = %entry
  %10 = landingpad { ptr, i32 }
          cleanup
  %11 = extractvalue { ptr, i32 } %10, 0
  store ptr %11, ptr %exn.slot, align 8
  %12 = extractvalue { ptr, i32 } %10, 1
  store i32 %12, ptr %ehselector.slot, align 4
  call void @_ZN7b2JointD2Ev(ptr noundef nonnull align 8 dereferenceable(128) %this1) #8
  br label %eh.resume

eh.resume:                                        ; preds = %lpad
  %exn = load ptr, ptr %exn.slot, align 8
  %sel = load i32, ptr %ehselector.slot, align 4
  %lpad.val = insertvalue { ptr, i32 } poison, ptr %exn, 0
  %lpad.val4 = insertvalue { ptr, i32 } %lpad.val, i32 %sel, 1
  resume { ptr, i32 } %lpad.val4
}