; Function Attrs: mustprogress uwtable
define void @_ZN12b2MotorJointC2EPK15b2MotorJointDef(ptr noundef nonnull align 8 dereferenceable(252) %this, ptr noundef %def) unnamed_addr #1 align 2 personality ptr @__gxx_personality_v0 {
entry:
  tail call void @_ZN7b2JointC2EPK10b2JointDef(ptr noundef nonnull align 8 dereferenceable(128) %this, ptr noundef %def)
  store ptr getelementptr inbounds ({ [14 x ptr] }, ptr @_ZTV12b2MotorJoint, i64 0, i32 0, i64 2), ptr %this, align 8
  %linearOffset = getelementptr inbounds i8, ptr %def, i64 36
  %m_linearOffset2 = getelementptr inbounds i8, ptr %this, i64 128
  %0 = load i64, ptr %linearOffset, align 4
  store i64 %0, ptr %m_linearOffset2, align 8
  %angularOffset = getelementptr inbounds i8, ptr %def, i64 44
  %1 = load float, ptr %angularOffset, align 4
  %m_angularOffset = getelementptr inbounds i8, ptr %this, i64 136
  store float %1, ptr %m_angularOffset, align 8
  %m_linearImpulse3 = getelementptr inbounds i8, ptr %this, i64 140
  store <2 x float> zeroinitializer, ptr %m_linearImpulse3, align 4
  %m_angularImpulse = getelementptr inbounds i8, ptr %this, i64 148
  store float 0.000000e+00, ptr %m_angularImpulse, align 4
  %maxForce = getelementptr inbounds i8, ptr %def, i64 48
  %2 = load float, ptr %maxForce, align 8
  %m_maxForce = getelementptr inbounds i8, ptr %this, i64 152
  store float %2, ptr %m_maxForce, align 8
  %maxTorque = getelementptr inbounds i8, ptr %def, i64 52
  %3 = load float, ptr %maxTorque, align 4
  %m_maxTorque = getelementptr inbounds i8, ptr %this, i64 156
  store float %3, ptr %m_maxTorque, align 4
  %correctionFactor = getelementptr inbounds i8, ptr %def, i64 56
  %4 = load float, ptr %correctionFactor, align 8
  %m_correctionFactor = getelementptr inbounds i8, ptr %this, i64 160
  store float %4, ptr %m_correctionFactor, align 8
  ret void
}